target datalayout = "e-m:e-p270:32:32-p271:32:32-p272:64:64-i64:64-i128:128-f80:128-n8:16:32:64-S128"
target triple = "x86_64-pc-linux-gnu"

%struct.NSVGimage = type { float, float, ptr }
%struct.NSVGshape = type { [64 x i8], %struct.NSVGpaint, %struct.NSVGpaint, float, float, float, [8 x float], i8, i8, i8, float, i8, i8, [4 x float], [64 x i8], [64 x i8], [6 x float], ptr, ptr }
%struct.NSVGpaint = type { i8, %union.anon }
%union.anon = type { ptr }
%struct.NSVGpath = type { ptr, i32, i8, [4 x float], ptr }

@.str.10 = private unnamed_addr constant [3 x i8] c"rb\00", align 1

; Function Attrs: nounwind uwtable
define internal void @nsvg__deletePaint(ptr noundef %0) #0 {
  %2 = alloca ptr, align 8
  store ptr %0, ptr %2, align 8, !tbaa !96
  %3 = load ptr, ptr %2, align 8, !tbaa !96
  %4 = getelementptr inbounds nuw %struct.NSVGpaint, ptr %3, i32 0, i32 0
  %5 = load i8, ptr %4, align 8, !tbaa !98
  %6 = sext i8 %5 to i32
  %7 = icmp eq i32 %6, 2
  br i1 %7, label %14, label %8

8:                                                ; preds = %1
  %9 = load ptr, ptr %2, align 8, !tbaa !96
  %10 = getelementptr inbounds nuw %struct.NSVGpaint, ptr %9, i32 0, i32 0
  %11 = load i8, ptr %10, align 8, !tbaa !98
  %12 = sext i8 %11 to i32
  %13 = icmp eq i32 %12, 3
  br i1 %13, label %14, label %18

14:                                               ; preds = %8, %1
  %15 = load ptr, ptr %2, align 8, !tbaa !96
  %16 = getelementptr inbounds nuw %struct.NSVGpaint, ptr %15, i32 0, i32 1
  %17 = load ptr, ptr %16, align 8, !tbaa !12
  call void @free(ptr noundef %17) #11
  br label %18

18:                                               ; preds = %14, %8
  ret void
}

; Function Attrs: nounwind uwtable
define internal void @nsvg__deletePaths(ptr noundef %0) #0 {
  %2 = alloca ptr, align 8
  %3 = alloca ptr, align 8
  store ptr %0, ptr %2, align 8, !tbaa !73
  br label %4

4:                                                ; preds = %19, %1
  %5 = load ptr, ptr %2, align 8, !tbaa !73
  %6 = icmp ne ptr %5, null
  br i1 %6, label %7, label %22

7:                                                ; preds = %4
  call void @llvm.lifetime.start.p0(i64 8, ptr %3) #11
  %8 = load ptr, ptr %2, align 8, !tbaa !73
  %9 = getelementptr inbounds nuw %struct.NSVGpath, ptr %8, i32 0, i32 4
  %10 = load ptr, ptr %9, align 8, !tbaa !79
  store ptr %10, ptr %3, align 8, !tbaa !73
  %11 = load ptr, ptr %2, align 8, !tbaa !73
  %12 = getelementptr inbounds nuw %struct.NSVGpath, ptr %11, i32 0, i32 0
  %13 = load ptr, ptr %12, align 8, !tbaa !76
  %14 = icmp ne ptr %13, null
  br i1 %14, label %15, label %19

15:                                               ; preds = %7
  %16 = load ptr, ptr %2, align 8, !tbaa !73
  %17 = getelementptr inbounds nuw %struct.NSVGpath, ptr %16, i32 0, i32 0
  %18 = load ptr, ptr %17, align 8, !tbaa !76
  call void @free(ptr noundef %18) #11
  br label %19

19:                                               ; preds = %15, %7
  %20 = load ptr, ptr %2, align 8, !tbaa !73
  call void @free(ptr noundef %20) #11
  %21 = load ptr, ptr %3, align 8, !tbaa !73
  store ptr %21, ptr %2, align 8, !tbaa !73
  call void @llvm.lifetime.end.p0(i64 8, ptr %3) #11
  br label %4, !llvm.loop !95

22:                                               ; preds = %4
  ret void
}

; Function Attrs: nounwind uwtable
define dso_local void @nsvgDelete(ptr noundef %0) #0 {
  %2 = alloca ptr, align 8
  %3 = alloca ptr, align 8
  %4 = alloca ptr, align 8
  %5 = alloca i32, align 4
  store ptr %0, ptr %2, align 8, !tbaa !25
  call void @llvm.lifetime.start.p0(i64 8, ptr %3) #11
  call void @llvm.lifetime.start.p0(i64 8, ptr %4) #11
  %6 = load ptr, ptr %2, align 8, !tbaa !25
  %7 = icmp eq ptr %6, null
  br i1 %7, label %8, label %9

8:                                                ; preds = %1
  store i32 1, ptr %5, align 4
  br label %31

9:                                                ; preds = %1
  %10 = load ptr, ptr %2, align 8, !tbaa !25
  %11 = getelementptr inbounds nuw %struct.NSVGimage, ptr %10, i32 0, i32 2
  %12 = load ptr, ptr %11, align 8, !tbaa !54
  store ptr %12, ptr %4, align 8, !tbaa !56
  br label %13

13:                                               ; preds = %16, %9
  %14 = load ptr, ptr %4, align 8, !tbaa !56
  %15 = icmp ne ptr %14, null
  br i1 %15, label %16, label %29

16:                                               ; preds = %13
  %17 = load ptr, ptr %4, align 8, !tbaa !56
  %18 = getelementptr inbounds nuw %struct.NSVGshape, ptr %17, i32 0, i32 18
  %19 = load ptr, ptr %18, align 8, !tbaa !61
  store ptr %19, ptr %3, align 8, !tbaa !56
  %20 = load ptr, ptr %4, align 8, !tbaa !56
  %21 = getelementptr inbounds nuw %struct.NSVGshape, ptr %20, i32 0, i32 17
  %22 = load ptr, ptr %21, align 8, !tbaa !72
  call void @nsvg__deletePaths(ptr noundef %22)
  %23 = load ptr, ptr %4, align 8, !tbaa !56
  %24 = getelementptr inbounds nuw %struct.NSVGshape, ptr %23, i32 0, i32 1
  call void @nsvg__deletePaint(ptr noundef %24)
  %25 = load ptr, ptr %4, align 8, !tbaa !56
  %26 = getelementptr inbounds nuw %struct.NSVGshape, ptr %25, i32 0, i32 2
  call void @nsvg__deletePaint(ptr noundef %26)
  %27 = load ptr, ptr %4, align 8, !tbaa !56
  call void @free(ptr noundef %27) #11
  %28 = load ptr, ptr %3, align 8, !tbaa !56
  store ptr %28, ptr %4, align 8, !tbaa !56
  br label %13, !llvm.loop !93

29:                                               ; preds = %13
  %30 = load ptr, ptr %2, align 8, !tbaa !25
  call void @free(ptr noundef %30) #11
  store i32 0, ptr %5, align 4
  br label %31

31:                                               ; preds = %29, %8
  call void @llvm.lifetime.end.p0(i64 8, ptr %4) #11
  call void @llvm.lifetime.end.p0(i64 8, ptr %3) #11
  %32 = load i32, ptr %5, align 4
  switch i32 %32, label %34 [
    i32 0, label %33
    i32 1, label %33
  ]

33:                                               ; preds = %31, %31
  ret void

34:                                               ; preds = %31
  unreachable
}

; Function Attrs: nounwind uwtable
define dso_local ptr @nsvgParseFromFile(ptr noundef %0, ptr noundef %1, float noundef %2) #0 {
  %4 = alloca ptr, align 8
  %5 = alloca ptr, align 8
  %6 = alloca ptr, align 8
  %7 = alloca float, align 4
  %8 = alloca ptr, align 8
  %9 = alloca i64, align 8
  %10 = alloca ptr, align 8
  %11 = alloca ptr, align 8
  %12 = alloca i32, align 4
  store ptr %0, ptr %5, align 8, !tbaa !4
  store ptr %1, ptr %6, align 8, !tbaa !4
  store float %2, ptr %7, align 4, !tbaa !23
  call void @llvm.lifetime.start.p0(i64 8, ptr %8) #11
  store ptr null, ptr %8, align 8, !tbaa !89
  call void @llvm.lifetime.start.p0(i64 8, ptr %9) #11
  call void @llvm.lifetime.start.p0(i64 8, ptr %10) #11
  store ptr null, ptr %10, align 8, !tbaa !4
  call void @llvm.lifetime.start.p0(i64 8, ptr %11) #11
  store ptr null, ptr %11, align 8, !tbaa !25
  %13 = load ptr, ptr %5, align 8, !tbaa !4
  %14 = call noalias ptr @fopen(ptr noundef %13, ptr noundef @.str.10)
  store ptr %14, ptr %8, align 8, !tbaa !89
  %15 = load ptr, ptr %8, align 8, !tbaa !89
  %16 = icmp ne ptr %15, null
  br i1 %16, label %18, label %17

17:                                               ; preds = %3
  br label %51

18:                                               ; preds = %3
  %19 = load ptr, ptr %8, align 8, !tbaa !89
  %20 = call i32 @fseek(ptr noundef %19, i64 noundef 0, i32 noundef 2)
  %21 = load ptr, ptr %8, align 8, !tbaa !89
  %22 = call i64 @ftell(ptr noundef %21)
  store i64 %22, ptr %9, align 8, !tbaa !91
  %23 = load ptr, ptr %8, align 8, !tbaa !89
  %24 = call i32 @fseek(ptr noundef %23, i64 noundef 0, i32 noundef 0)
  %25 = load i64, ptr %9, align 8, !tbaa !91
  %26 = add i64 %25, 1
  %27 = call noalias ptr @malloc(i64 noundef %26) #12
  store ptr %27, ptr %10, align 8, !tbaa !4
  %28 = load ptr, ptr %10, align 8, !tbaa !4
  %29 = icmp eq ptr %28, null
  br i1 %29, label %30, label %31

30:                                               ; preds = %18
  br label %51

31:                                               ; preds = %18
  %32 = load ptr, ptr %10, align 8, !tbaa !4
  %33 = load i64, ptr %9, align 8, !tbaa !91
  %34 = load ptr, ptr %8, align 8, !tbaa !89
  %35 = call i64 @fread(ptr noundef %32, i64 noundef 1, i64 noundef %33, ptr noundef %34)
  %36 = load i64, ptr %9, align 8, !tbaa !91
  %37 = icmp ne i64 %35, %36
  br i1 %37, label %38, label %39

38:                                               ; preds = %31
  br label %51

39:                                               ; preds = %31
  %40 = load ptr, ptr %10, align 8, !tbaa !4
  %41 = load i64, ptr %9, align 8, !tbaa !91
  %42 = getelementptr inbounds nuw i8, ptr %40, i64 %41
  store i8 0, ptr %42, align 1, !tbaa !12
  %43 = load ptr, ptr %8, align 8, !tbaa !89
  %44 = call i32 @fclose(ptr noundef %43)
  %45 = load ptr, ptr %10, align 8, !tbaa !4
  %46 = load ptr, ptr %6, align 8, !tbaa !4
  %47 = load float, ptr %7, align 4, !tbaa !23
  %48 = call ptr @nsvgParse(ptr noundef %45, ptr noundef %46, float noundef %47)
  store ptr %48, ptr %11, align 8, !tbaa !25
  %49 = load ptr, ptr %10, align 8, !tbaa !4
  call void @free(ptr noundef %49) #11
  %50 = load ptr, ptr %11, align 8, !tbaa !25
  store ptr %50, ptr %4, align 8
  store i32 1, ptr %12, align 4
  br label %68

51:                                               ; preds = %38, %30, %17
  %52 = load ptr, ptr %8, align 8, !tbaa !89
  %53 = icmp ne ptr %52, null
  br i1 %53, label %54, label %57

54:                                               ; preds = %51
  %55 = load ptr, ptr %8, align 8, !tbaa !89
  %56 = call i32 @fclose(ptr noundef %55)
  br label %57

57:                                               ; preds = %54, %51
  %58 = load ptr, ptr %10, align 8, !tbaa !4
  %59 = icmp ne ptr %58, null
  br i1 %59, label %60, label %62

60:                                               ; preds = %57
  %61 = load ptr, ptr %10, align 8, !tbaa !4
  call void @free(ptr noundef %61) #11
  br label %62

62:                                               ; preds = %60, %57
  %63 = load ptr, ptr %11, align 8, !tbaa !25
  %64 = icmp ne ptr %63, null
  br i1 %64, label %65, label %67

65:                                               ; preds = %62
  %66 = load ptr, ptr %11, align 8, !tbaa !25
  call void @nsvgDelete(ptr noundef %66)
  br label %67

67:                                               ; preds = %65, %62
  store ptr null, ptr %4, align 8
  store i32 1, ptr %12, align 4
  br label %68

68:                                               ; preds = %67, %39
  call void @llvm.lifetime.end.p0(i64 8, ptr %11) #11
  call void @llvm.lifetime.end.p0(i64 8, ptr %10) #11
  call void @llvm.lifetime.end.p0(i64 8, ptr %9) #11
  call void @llvm.lifetime.end.p0(i64 8, ptr %8) #11
  %69 = load ptr, ptr %4, align 8
  ret ptr %69
}