; Function Attrs: nounwind uwtable
define dso_local ptr @nsvgParseFromFile(ptr noundef readonly captures(none) %0, ptr noundef readonly captures(none) %1, float noundef %2) local_unnamed_addr #0 {
  %4 = tail call noalias ptr @fopen(ptr noundef %0, ptr noundef nonnull @.str.10)
  %.not = icmp eq ptr %4, null
  br i1 %.not, label %.thread35, label %5

5:                                                ; preds = %3
  %6 = tail call i32 @fseek(ptr noundef nonnull %4, i64 noundef 0, i32 noundef 2)
  %7 = tail call i64 @ftell(ptr noundef nonnull %4)
  %8 = tail call i32 @fseek(ptr noundef nonnull %4, i64 noundef 0, i32 noundef 0)
  %9 = add i64 %7, 1
  %10 = tail call noalias ptr @malloc(i64 noundef %9) #34
  %11 = icmp eq ptr %10, null
  br i1 %11, label %.thread38, label %13

.thread38:                                        ; preds = %5
  %12 = tail call i32 @fclose(ptr noundef nonnull %4)
  br label %.thread35

13:                                               ; preds = %5
  %14 = tail call i64 @fread(ptr noundef nonnull %10, i64 noundef 1, i64 noundef %7, ptr noundef nonnull %4)
  %.not30 = icmp eq i64 %14, %7
  br i1 %.not30, label %15, label %19

15:                                               ; preds = %13
  %16 = getelementptr inbounds nuw i8, ptr %10, i64 %7
  store i8 0, ptr %16, align 1, !tbaa !4
  %17 = tail call i32 @fclose(ptr noundef nonnull %4)
  %18 = tail call ptr @nsvgParse(ptr noundef nonnull %10, ptr noundef %1, float noundef %2)
  tail call void @free(ptr noundef nonnull %10) #31
  br label %.thread35

19:                                               ; preds = %13
  %20 = tail call i32 @fclose(ptr noundef nonnull %4)
  tail call void @free(ptr noundef nonnull %10) #31
  br label %.thread35

.thread35:                                        ; preds = %3, %.thread38, %19, %15
  %.025 = phi ptr [ %18, %15 ], [ null, %19 ], [ null, %.thread38 ], [ null, %3 ]
  ret ptr %.025
}